; Function Attrs: mustprogress uwtable
define noundef i32 @_ZN3zmq5req_t11xsetsockoptEiPKvm(ptr noundef nonnull align 8 dereferenceable(1960) %this, i32 noundef %option_, ptr noundef %optval_, i64 noundef %optvallen_) unnamed_addr #0 align 2 {
entry:
  %cmp = icmp eq i64 %optvallen_, 4
  br i1 %cmp, label %if.then, label %if.end

if.then:                                          ; preds = %entry
  %value.0.copyload = load i32, ptr %optval_, align 1
  br label %if.end

if.end:                                           ; preds = %if.then, %entry
  %value.0 = phi i32 [ %value.0.copyload, %if.then ], [ 0, %entry ]
  switch i32 %option_, label %sw.epilog [
    i32 52, label %sw.bb
    i32 53, label %sw.bb8
  ]

sw.bb:                                            ; preds = %if.end
  %cmp3 = icmp sgt i32 %value.0, -1
  %or.cond = select i1 %cmp, i1 %cmp3, i1 false
  br i1 %or.cond, label %if.then4, label %sw.epilog

if.then4:                                         ; preds = %sw.bb
  %cmp5 = icmp ne i32 %value.0, 0
  %_request_id_frames_enabled = getelementptr inbounds i8, ptr %this, i64 1944
  %frombool6 = zext i1 %cmp5 to i8
  store i8 %frombool6, ptr %_request_id_frames_enabled, align 8
  br label %return

sw.bb8:                                           ; preds = %if.end
  %cmp11 = icmp sgt i32 %value.0, -1
  %or.cond1 = select i1 %cmp, i1 %cmp11, i1 false
  br i1 %or.cond1, label %if.then12, label %sw.epilog

if.then12:                                        ; preds = %sw.bb8
  %cmp13 = icmp eq i32 %value.0, 0
  %_strict = getelementptr inbounds i8, ptr %this, i64 1952
  %frombool14 = zext i1 %cmp13 to i8
  store i8 %frombool14, ptr %_strict, align 8
  br label %return

sw.epilog:                                        ; preds = %if.end, %sw.bb8, %sw.bb
  %call = tail call noundef i32 @_ZN3zmq8dealer_t11xsetsockoptEiPKvm(ptr noundef nonnull align 8 dereferenceable(1929) %this, i32 noundef %option_, ptr noundef %optval_, i64 noundef %optvallen_)
  br label %return

return:                                           ; preds = %sw.epilog, %if.then12, %if.then4
  %retval.0 = phi i32 [ %call, %sw.epilog ], [ 0, %if.then12 ], [ 0, %if.then4 ]
  ret i32 %retval.0
}